target datalayout = "e-m:e-p270:32:32-p271:32:32-p272:64:64-i64:64-i128:128-f80:128-n8:16:32:64-S128"
target triple = "x86_64-pc-linux-gnu"

%struct.ma_panner_config = type { i32, i32, i32, float }

; Function Attrs: alwaysinline nounwind uwtable
define internal void @ma_zero_memory_default(ptr noundef %0, i64 noundef %1) #7 {
  %3 = alloca ptr, align 8
  %4 = alloca i64, align 8
  store ptr %0, ptr %3, align 8, !tbaa !25
  store i64 %1, ptr %4, align 8, !tbaa !12
  %5 = load ptr, ptr %3, align 8, !tbaa !25
  %6 = icmp eq ptr %5, null
  br i1 %6, label %7, label %8

7:                                                ; preds = %2
  br label %14

8:                                                ; preds = %2
  %9 = load i64, ptr %4, align 8, !tbaa !12
  %10 = icmp ugt i64 %9, 0
  br i1 %10, label %11, label %14

11:                                               ; preds = %8
  %12 = load ptr, ptr %3, align 8, !tbaa !25
  %13 = load i64, ptr %4, align 8, !tbaa !12
  call void @llvm.memset.p0.i64(ptr align 1 %12, i8 0, i64 %13, i1 false)
  br label %14

14:                                               ; preds = %7, %11, %8
  ret void
}

; Function Attrs: nounwind uwtable
define { i64, i64 } @ma_panner_config_init(i32 noundef %0, i32 noundef %1) #0 {
  %3 = alloca %struct.ma_panner_config, align 4
  %4 = alloca i32, align 4
  %5 = alloca i32, align 4
  store i32 %0, ptr %4, align 4, !tbaa !8
  store i32 %1, ptr %5, align 4, !tbaa !8
  call void @ma_zero_memory_default(ptr noundef %3, i64 noundef 16)
  %6 = load i32, ptr %4, align 4, !tbaa !8
  %7 = getelementptr inbounds nuw %struct.ma_panner_config, ptr %3, i32 0, i32 0
  store i32 %6, ptr %7, align 4, !tbaa !578
  %8 = load i32, ptr %5, align 4, !tbaa !8
  %9 = getelementptr inbounds nuw %struct.ma_panner_config, ptr %3, i32 0, i32 1
  store i32 %8, ptr %9, align 4, !tbaa !580
  %10 = getelementptr inbounds nuw %struct.ma_panner_config, ptr %3, i32 0, i32 2
  store i32 0, ptr %10, align 4, !tbaa !581
  %11 = getelementptr inbounds nuw %struct.ma_panner_config, ptr %3, i32 0, i32 3
  store float 0.000000e+00, ptr %11, align 4, !tbaa !582
  %12 = load { i64, i64 }, ptr %3, align 4
  ret { i64, i64 } %12
}